ccopy_reg
_reconstructor
p0
(csklearn.grid_search
GridSearchCV
p1
c__builtin__
object
p2
Ntp3
Rp4
(dp5
S'scoring'
p6
g0
(csklearn.metrics.scorer
_PredictScorer
p7
g2
Ntp8
Rp9
(dp10
S'_kwargs'
p11
(dp12
S'beta'
p13
F1e+100
ssS'_score_func'
p14
csklearn.metrics.classification
fbeta_score
p15
sS'_sign'
p16
I1
sbsS'n_jobs'
p17
I1
sS'verbose'
p18
I0
sS'fit_params'
p19
(dp20
sS'refit'
p21
I01
sS'iid'
p22
I01
sS'estimator'
p23
g0
(csklearn.pipeline
Pipeline
p24
g2
Ntp25
Rp26
(dp27
S'steps'
p28
(lp29
(S'pca'
p30
g0
(csklearn.decomposition.pca
PCA
p31
g2
Ntp32
Rp33
(dp34
S'copy'
p35
I01
sS'n_components'
p36
NsS'whiten'
p37
I00
sbtp38
a(S'selectpercentile'
p39
g0
(csklearn.feature_selection.univariate_selection
SelectPercentile
p40
g2
Ntp41
Rp42
(dp43
S'percentile'
p44
I10
sS'score_func'
p45
csklearn.feature_selection.univariate_selection
f_classif
p46
sbtp47
a(S'adaboostclassifier'
p48
g0
(csklearn.ensemble.weight_boosting
AdaBoostClassifier
p49
g2
Ntp50
Rp51
(dp52
S'base_estimator'
p53
NsS'estimators_'
p54
(lp55
sS'algorithm'
p56
S'SAMME.R'
p57
sS'learning_rate'
p58
F1.0
sS'n_estimators'
p59
I50
sS'random_state'
p60
NsS'estimator_params'
p61
(tsbtp62
asbsS'error_score'
p63
S'raise'
p64
sS'pre_dispatch'
p65
S'2*n_jobs'
p66
sS'param_grid'
p67
(dp68
S'selectpercentile__percentile'
p69
(lp70
I25
aI50
aI75
aI100
asS'adaboostclassifier__n_estimators'
p71
(lp72
I20
aI40
aI60
asS'pca__n_components'
p73
(lp74
I14
aI16
aI18
aI20
assS'cv'
p75
Nsb.