(lp0
S'poi'
p1
aS'bonus_vs_salary'
p2
aS'director_fees'
p3
aS'from_messages'
p4
aS'from_poi_to_this_person'
p5
aS'total_long_term_incentive'
p6
aS'bonus'
p7
aS'deferral_payments'
p8
aS'deferred_income'
p9
aS'exercised_stock_options'
p10
aS'long_term_incentive'
p11
aS'restricted_stock'
p12
aS'restricted_stock_deferred'
p13
aS'salary'
p14
aS'total_current_compensation'
p15
aS'originally_missing'
p16
aS'total_missing'
p17
aS'from_this_person_to_poi'
p18
aS'loan_advances'
p19
aS'money_left_on_table'
p20
aS'shared_receipt_with_poi'
p21
aS'to_messages'
p22
aS'missing_bonus'
p23
aS'missing_money_left_on_table'
p24
aS'missing_director_fees'
p25
aS'poi_interaction'
p26
aS'missing_from_messages'
p27
aS'from_poi_equal_to_poi'
p28
aS'missing_exercised_stock_options'
p29
aS'from_poi_larger_than_to_poi'
p30
aS'missing_deferral_payments'
p31
aS'missing_to_messages'
p32
aS'restricted_stock_equal_restricted_stock_deferred'
p33
aS'no_missing_vs_no_original_features'
p34
aS'missing_loan_advances'
p35
aS'total_missing_vs_all_features'
p36
aS'missing_bonus_vs_salary'
p37
aS'restricted_stock_larger_than_restricted_stock_deferred'
p38
aS'missing_poi_interaction'
p39
aS'from_poi_smaller_than_to_poi'
p40
aS'missing_from_this_person_to_poi'
p41
aS'missing_from_poi_to_this_person'
p42
aS'missing_deferred_income'
p43
aS'missing_salary'
p44
aS'missing_restricted_stock_deferred'
p45
aS'missing_restricted_stock'
p46
aS'missing_shared_receipt_with_poi'
p47
aS'missing_long_term_incentive'
p48
a.